target datalayout = "e-m:e-p270:32:32-p271:32:32-p272:64:64-i64:64-i128:128-f80:128-n8:16:32:64-S128"
target triple = "x86_64-pc-linux-gnu"

%struct.lean_object = type { i32, i32 }
%struct.lean_string_object = type { %struct.lean_object, i64, i64, i64, [0 x i8] }

@l_Lake_BuildType_ofString_x3f___closed__1 = internal global ptr null, align 8
@l_Lake_BuildType_ofString_x3f___closed__2 = internal global ptr null, align 8
@l_Lake_BuildType_ofString_x3f___closed__3 = internal global ptr null, align 8
@l_Lake_BuildType_ofString_x3f___closed__4 = internal global ptr null, align 8
@l_Lake_BuildType_ofString_x3f___closed__5 = internal global ptr null, align 8
@l_Lake_BuildType_ofString_x3f___closed__6 = internal global ptr null, align 8
@l_Lake_BuildType_ofString_x3f___closed__7 = internal global ptr null, align 8
@l_Lake_BuildType_ofString_x3f___closed__8 = internal global ptr null, align 8

; Function Attrs: inlinehint nounwind uwtable
define internal ptr @lean_to_string(ptr noundef %0) #1 {
  %2 = alloca ptr, align 8
  store ptr %0, ptr %2, align 8, !tbaa !4
  %3 = load ptr, ptr %2, align 8, !tbaa !4
  ret ptr %3
}

; Function Attrs: inlinehint nounwind uwtable
define internal i64 @lean_string_size(ptr noundef %0) #1 {
  %2 = alloca ptr, align 8
  store ptr %0, ptr %2, align 8, !tbaa !4
  %3 = load ptr, ptr %2, align 8, !tbaa !4
  %4 = call ptr @lean_to_string(ptr noundef %3)
  %5 = getelementptr inbounds nuw %struct.lean_string_object, ptr %4, i32 0, i32 1
  %6 = load i64, ptr %5, align 8, !tbaa !8
  ret i64 %6
}

; Function Attrs: inlinehint nounwind uwtable
define internal zeroext i1 @lean_string_eq(ptr noundef %0, ptr noundef %1) #1 {
  %3 = alloca ptr, align 8
  %4 = alloca ptr, align 8
  store ptr %0, ptr %3, align 8, !tbaa !4
  store ptr %1, ptr %4, align 8, !tbaa !4
  %5 = load ptr, ptr %3, align 8, !tbaa !4
  %6 = load ptr, ptr %4, align 8, !tbaa !4
  %7 = icmp eq ptr %5, %6
  br i1 %7, label %20, label %8

8:                                                ; preds = %2
  %9 = load ptr, ptr %3, align 8, !tbaa !4
  %10 = call i64 @lean_string_size(ptr noundef %9)
  %11 = load ptr, ptr %4, align 8, !tbaa !4
  %12 = call i64 @lean_string_size(ptr noundef %11)
  %13 = icmp eq i64 %10, %12
  br i1 %13, label %14, label %18

14:                                               ; preds = %8
  %15 = load ptr, ptr %3, align 8, !tbaa !4
  %16 = load ptr, ptr %4, align 8, !tbaa !4
  %17 = call zeroext i1 @lean_string_eq_cold(ptr noundef %15, ptr noundef %16)
  br label %18

18:                                               ; preds = %14, %8
  %19 = phi i1 [ false, %8 ], [ %17, %14 ]
  br label %20

20:                                               ; preds = %18, %2
  %21 = phi i1 [ true, %2 ], [ %19, %18 ]
  ret i1 %21
}

; Function Attrs: inlinehint nounwind uwtable
define internal ptr @lean_box(i64 noundef %0) #1 {
  %2 = alloca i64, align 8
  store i64 %0, ptr %2, align 8, !tbaa !8
  %3 = load i64, ptr %2, align 8, !tbaa !8
  %4 = shl i64 %3, 1
  %5 = or i64 %4, 1
  %6 = inttoptr i64 %5 to ptr
  ret ptr %6
}

; Function Attrs: inlinehint nounwind uwtable
define internal zeroext i8 @lean_string_dec_eq(ptr noundef %0, ptr noundef %1) #1 {
  %3 = alloca ptr, align 8
  %4 = alloca ptr, align 8
  store ptr %0, ptr %3, align 8, !tbaa !4
  store ptr %1, ptr %4, align 8, !tbaa !4
  %5 = load ptr, ptr %3, align 8, !tbaa !4
  %6 = load ptr, ptr %4, align 8, !tbaa !4
  %7 = call zeroext i1 @lean_string_eq(ptr noundef %5, ptr noundef %6)
  %8 = zext i1 %7 to i8
  ret i8 %8
}

; Function Attrs: nounwind uwtable
define ptr @l_Lake_BuildType_ofString_x3f(ptr noundef %0) #2 {
  %2 = alloca ptr, align 8
  %3 = alloca ptr, align 8
  %4 = alloca ptr, align 8
  %5 = alloca i8, align 1
  %6 = alloca ptr, align 8
  %7 = alloca i8, align 1
  %8 = alloca ptr, align 8
  %9 = alloca i8, align 1
  %10 = alloca ptr, align 8
  %11 = alloca i8, align 1
  %12 = alloca ptr, align 8
  %13 = alloca i32, align 4
  %14 = alloca ptr, align 8
  %15 = alloca ptr, align 8
  %16 = alloca ptr, align 8
  %17 = alloca ptr, align 8
  store ptr %0, ptr %3, align 8, !tbaa !4
  br label %18

18:                                               ; preds = %1
  call void @llvm.lifetime.start.p0(i64 8, ptr %4) #7
  call void @llvm.lifetime.start.p0(i64 1, ptr %5) #7
  %19 = load ptr, ptr @l_Lake_BuildType_ofString_x3f___closed__1, align 8, !tbaa !4
  store ptr %19, ptr %4, align 8, !tbaa !4
  %20 = load ptr, ptr %3, align 8, !tbaa !4
  %21 = load ptr, ptr %4, align 8, !tbaa !4
  %22 = call zeroext i8 @lean_string_dec_eq(ptr noundef %20, ptr noundef %21)
  store i8 %22, ptr %5, align 1, !tbaa !12
  %23 = load i8, ptr %5, align 1, !tbaa !12
  %24 = zext i8 %23 to i32
  %25 = icmp eq i32 %24, 0
  br i1 %25, label %26, label %65

26:                                               ; preds = %18
  call void @llvm.lifetime.start.p0(i64 8, ptr %6) #7
  call void @llvm.lifetime.start.p0(i64 1, ptr %7) #7
  %27 = load ptr, ptr @l_Lake_BuildType_ofString_x3f___closed__2, align 8, !tbaa !4
  store ptr %27, ptr %6, align 8, !tbaa !4
  %28 = load ptr, ptr %3, align 8, !tbaa !4
  %29 = load ptr, ptr %6, align 8, !tbaa !4
  %30 = call zeroext i8 @lean_string_dec_eq(ptr noundef %28, ptr noundef %29)
  store i8 %30, ptr %7, align 1, !tbaa !12
  %31 = load i8, ptr %7, align 1, !tbaa !12
  %32 = zext i8 %31 to i32
  %33 = icmp eq i32 %32, 0
  br i1 %33, label %34, label %61

34:                                               ; preds = %26
  call void @llvm.lifetime.start.p0(i64 8, ptr %8) #7
  call void @llvm.lifetime.start.p0(i64 1, ptr %9) #7
  %35 = load ptr, ptr @l_Lake_BuildType_ofString_x3f___closed__3, align 8, !tbaa !4
  store ptr %35, ptr %8, align 8, !tbaa !4
  %36 = load ptr, ptr %3, align 8, !tbaa !4
  %37 = load ptr, ptr %8, align 8, !tbaa !4
  %38 = call zeroext i8 @lean_string_dec_eq(ptr noundef %36, ptr noundef %37)
  store i8 %38, ptr %9, align 1, !tbaa !12
  %39 = load i8, ptr %9, align 1, !tbaa !12
  %40 = zext i8 %39 to i32
  %41 = icmp eq i32 %40, 0
  br i1 %41, label %42, label %57

42:                                               ; preds = %34
  call void @llvm.lifetime.start.p0(i64 8, ptr %10) #7
  call void @llvm.lifetime.start.p0(i64 1, ptr %11) #7
  %43 = load ptr, ptr @l_Lake_BuildType_ofString_x3f___closed__4, align 8, !tbaa !4
  store ptr %43, ptr %10, align 8, !tbaa !4
  %44 = load ptr, ptr %3, align 8, !tbaa !4
  %45 = load ptr, ptr %10, align 8, !tbaa !4
  %46 = call zeroext i8 @lean_string_dec_eq(ptr noundef %44, ptr noundef %45)
  store i8 %46, ptr %11, align 1, !tbaa !12
  %47 = load i8, ptr %11, align 1, !tbaa !12
  %48 = zext i8 %47 to i32
  %49 = icmp eq i32 %48, 0
  br i1 %49, label %50, label %53

50:                                               ; preds = %42
  call void @llvm.lifetime.start.p0(i64 8, ptr %12) #7
  %51 = call ptr @lean_box(i64 noundef 0)
  store ptr %51, ptr %12, align 8, !tbaa !4
  %52 = load ptr, ptr %12, align 8, !tbaa !4
  store ptr %52, ptr %2, align 8
  store i32 1, ptr %13, align 4
  call void @llvm.lifetime.end.p0(i64 8, ptr %12) #7
  br label %56

53:                                               ; preds = %42
  call void @llvm.lifetime.start.p0(i64 8, ptr %14) #7
  %54 = load ptr, ptr @l_Lake_BuildType_ofString_x3f___closed__5, align 8, !tbaa !4
  store ptr %54, ptr %14, align 8, !tbaa !4
  %55 = load ptr, ptr %14, align 8, !tbaa !4
  store ptr %55, ptr %2, align 8
  store i32 1, ptr %13, align 4
  call void @llvm.lifetime.end.p0(i64 8, ptr %14) #7
  br label %56

56:                                               ; preds = %53, %50
  call void @llvm.lifetime.end.p0(i64 1, ptr %11) #7
  call void @llvm.lifetime.end.p0(i64 8, ptr %10) #7
  br label %60

57:                                               ; preds = %34
  call void @llvm.lifetime.start.p0(i64 8, ptr %15) #7
  %58 = load ptr, ptr @l_Lake_BuildType_ofString_x3f___closed__6, align 8, !tbaa !4
  store ptr %58, ptr %15, align 8, !tbaa !4
  %59 = load ptr, ptr %15, align 8, !tbaa !4
  store ptr %59, ptr %2, align 8
  store i32 1, ptr %13, align 4
  call void @llvm.lifetime.end.p0(i64 8, ptr %15) #7
  br label %60

60:                                               ; preds = %57, %56
  call void @llvm.lifetime.end.p0(i64 1, ptr %9) #7
  call void @llvm.lifetime.end.p0(i64 8, ptr %8) #7
  br label %64

61:                                               ; preds = %26
  call void @llvm.lifetime.start.p0(i64 8, ptr %16) #7
  %62 = load ptr, ptr @l_Lake_BuildType_ofString_x3f___closed__7, align 8, !tbaa !4
  store ptr %62, ptr %16, align 8, !tbaa !4
  %63 = load ptr, ptr %16, align 8, !tbaa !4
  store ptr %63, ptr %2, align 8
  store i32 1, ptr %13, align 4
  call void @llvm.lifetime.end.p0(i64 8, ptr %16) #7
  br label %64

64:                                               ; preds = %61, %60
  call void @llvm.lifetime.end.p0(i64 1, ptr %7) #7
  call void @llvm.lifetime.end.p0(i64 8, ptr %6) #7
  br label %68

65:                                               ; preds = %18
  call void @llvm.lifetime.start.p0(i64 8, ptr %17) #7
  %66 = load ptr, ptr @l_Lake_BuildType_ofString_x3f___closed__8, align 8, !tbaa !4
  store ptr %66, ptr %17, align 8, !tbaa !4
  %67 = load ptr, ptr %17, align 8, !tbaa !4
  store ptr %67, ptr %2, align 8
  store i32 1, ptr %13, align 4
  call void @llvm.lifetime.end.p0(i64 8, ptr %17) #7
  br label %68

68:                                               ; preds = %65, %64
  call void @llvm.lifetime.end.p0(i64 1, ptr %5) #7
  call void @llvm.lifetime.end.p0(i64 8, ptr %4) #7
  %69 = load ptr, ptr %2, align 8
  ret ptr %69
}