; Function Attrs: nounwind uwtable
define ptr @l_Lake_BuildType_ofString_x3f(ptr noundef %0) local_unnamed_addr #1 {
  %2 = load ptr, ptr @l_Lake_BuildType_ofString_x3f___closed__1, align 8, !tbaa !10
  %3 = icmp eq ptr %0, %2
  br i1 %3, label %lean_string_dec_eq.exit.thread26, label %4

4:                                                ; preds = %1
  %5 = getelementptr i8, ptr %0, i64 8
  %.val.i.i = load i64, ptr %5, align 8, !tbaa !16
  %6 = getelementptr i8, ptr %2, i64 8
  %.val7.i.i = load i64, ptr %6, align 8, !tbaa !16
  %7 = icmp eq i64 %.val.i.i, %.val7.i.i
  br i1 %7, label %lean_string_dec_eq.exit, label %lean_string_dec_eq.exit.thread

lean_string_dec_eq.exit:                          ; preds = %4
  %8 = tail call zeroext i1 @lean_string_eq_cold(ptr noundef nonnull %0, ptr noundef nonnull %2) #8
  br i1 %8, label %lean_string_dec_eq.exit.thread26, label %lean_string_dec_eq.exit.thread

lean_string_dec_eq.exit.thread:                   ; preds = %4, %lean_string_dec_eq.exit
  %9 = load ptr, ptr @l_Lake_BuildType_ofString_x3f___closed__2, align 8, !tbaa !10
  %10 = icmp eq ptr %0, %9
  br i1 %10, label %lean_string_dec_eq.exit19.thread27, label %11

11:                                               ; preds = %lean_string_dec_eq.exit.thread
  %.val.i.i17 = load i64, ptr %5, align 8, !tbaa !16
  %12 = getelementptr i8, ptr %9, i64 8
  %.val7.i.i18 = load i64, ptr %12, align 8, !tbaa !16
  %13 = icmp eq i64 %.val.i.i17, %.val7.i.i18
  br i1 %13, label %lean_string_dec_eq.exit19, label %lean_string_dec_eq.exit19.thread

lean_string_dec_eq.exit19:                        ; preds = %11
  %14 = tail call zeroext i1 @lean_string_eq_cold(ptr noundef nonnull %0, ptr noundef nonnull %9) #8
  br i1 %14, label %lean_string_dec_eq.exit19.thread27, label %lean_string_dec_eq.exit19.thread

lean_string_dec_eq.exit19.thread:                 ; preds = %11, %lean_string_dec_eq.exit19
  %15 = load ptr, ptr @l_Lake_BuildType_ofString_x3f___closed__3, align 8, !tbaa !10
  %16 = icmp eq ptr %0, %15
  br i1 %16, label %lean_string_dec_eq.exit22.thread28, label %17

17:                                               ; preds = %lean_string_dec_eq.exit19.thread
  %.val.i.i20 = load i64, ptr %5, align 8, !tbaa !16
  %18 = getelementptr i8, ptr %15, i64 8
  %.val7.i.i21 = load i64, ptr %18, align 8, !tbaa !16
  %19 = icmp eq i64 %.val.i.i20, %.val7.i.i21
  br i1 %19, label %lean_string_dec_eq.exit22, label %lean_string_dec_eq.exit22.thread

lean_string_dec_eq.exit22:                        ; preds = %17
  %20 = tail call zeroext i1 @lean_string_eq_cold(ptr noundef nonnull %0, ptr noundef nonnull %15) #8
  br i1 %20, label %lean_string_dec_eq.exit22.thread28, label %lean_string_dec_eq.exit22.thread

lean_string_dec_eq.exit22.thread:                 ; preds = %17, %lean_string_dec_eq.exit22
  %21 = load ptr, ptr @l_Lake_BuildType_ofString_x3f___closed__4, align 8, !tbaa !10
  %22 = icmp eq ptr %0, %21
  br i1 %22, label %lean_string_dec_eq.exit25.thread29, label %23

23:                                               ; preds = %lean_string_dec_eq.exit22.thread
  %.val.i.i23 = load i64, ptr %5, align 8, !tbaa !16
  %24 = getelementptr i8, ptr %21, i64 8
  %.val7.i.i24 = load i64, ptr %24, align 8, !tbaa !16
  %25 = icmp eq i64 %.val.i.i23, %.val7.i.i24
  br i1 %25, label %lean_string_dec_eq.exit25, label %lean_string_dec_eq.exit25.thread

lean_string_dec_eq.exit25:                        ; preds = %23
  %26 = tail call zeroext i1 @lean_string_eq_cold(ptr noundef nonnull %0, ptr noundef nonnull %21) #8
  br i1 %26, label %lean_string_dec_eq.exit25.thread29, label %lean_string_dec_eq.exit25.thread

lean_string_dec_eq.exit25.thread29:               ; preds = %lean_string_dec_eq.exit22.thread, %lean_string_dec_eq.exit25
  %27 = load ptr, ptr @l_Lake_BuildType_ofString_x3f___closed__5, align 8, !tbaa !10
  br label %lean_string_dec_eq.exit25.thread

lean_string_dec_eq.exit22.thread28:               ; preds = %lean_string_dec_eq.exit19.thread, %lean_string_dec_eq.exit22
  %28 = load ptr, ptr @l_Lake_BuildType_ofString_x3f___closed__6, align 8, !tbaa !10
  br label %lean_string_dec_eq.exit25.thread

lean_string_dec_eq.exit19.thread27:               ; preds = %lean_string_dec_eq.exit.thread, %lean_string_dec_eq.exit19
  %29 = load ptr, ptr @l_Lake_BuildType_ofString_x3f___closed__7, align 8, !tbaa !10
  br label %lean_string_dec_eq.exit25.thread

lean_string_dec_eq.exit.thread26:                 ; preds = %1, %lean_string_dec_eq.exit
  %30 = load ptr, ptr @l_Lake_BuildType_ofString_x3f___closed__8, align 8, !tbaa !10
  br label %lean_string_dec_eq.exit25.thread

lean_string_dec_eq.exit25.thread:                 ; preds = %23, %lean_string_dec_eq.exit25, %lean_string_dec_eq.exit19.thread27, %lean_string_dec_eq.exit25.thread29, %lean_string_dec_eq.exit22.thread28, %lean_string_dec_eq.exit.thread26
  %.3 = phi ptr [ %30, %lean_string_dec_eq.exit.thread26 ], [ %29, %lean_string_dec_eq.exit19.thread27 ], [ %28, %lean_string_dec_eq.exit22.thread28 ], [ %27, %lean_string_dec_eq.exit25.thread29 ], [ inttoptr (i64 1 to ptr), %lean_string_dec_eq.exit25 ], [ inttoptr (i64 1 to ptr), %23 ]
  ret ptr %.3
}